target datalayout = "e-m:e-p270:32:32-p271:32:32-p272:64:64-i64:64-i128:128-f80:128-n8:16:32:64-S128"
target triple = "x86_64-pc-linux-gnu"

%struct.ssl_common_options = type { ptr, ptr }
%struct.ssl_master_key_map_t = type { ptr, ptr, ptr, ptr, ptr, ptr, ptr, ptr, ptr, ptr, ptr, ptr, ptr, ptr, ptr }
%struct._StringInfo = type { ptr, i32 }
%struct._SslDecryptSession = type { [48 x i8], [256 x i8], [32 x i8], [32 x i8], %struct._StringInfo, %struct._StringInfo, %struct._StringInfo, %struct._StringInfo, %struct._StringInfo, %struct._StringInfo, %struct._StringInfo, [24 x i8], %struct._StringInfo, [24 x i8], %struct._StringInfo, i32, ptr, ptr, ptr, ptr, ptr, ptr, %struct._StringInfo, %struct._StringInfo, %struct._SslSession, i8, %struct._StringInfo }
%struct._SslSession = type { i32, i32, i16, i8, [32 x i8], i8, i8, i32, i32, i32, %struct._StringInfo, i8, i8, [8 x i8], [8 x i8], [16 x i8], %struct._address, i32, i32, ptr, ptr, ptr, i32, i8, i32, i32, ptr, ptr, i8, i8, i8, i8, i8, [2 x i64], [2 x i64] }
%struct._address = type { i32, i32, ptr, ptr }
%struct._packet_info = type { ptr, ptr, i32, i32, %struct.nstime_t, %struct.nstime_t, %struct.nstime_t, i8, ptr, ptr, ptr, ptr, %struct._address, %struct._address, %struct._address, %struct._address, %struct._address, %struct._address, i32, ptr, i8, [3 x i8], %struct.anon, i32, i32, i32, i32, ptr, i8, ptr, ptr, i16, i16, i32, i32, i16, i32, i32, ptr, ptr, ptr, i8, i8, i16, i16, i16, i32, i16, i16, ptr, ptr, ptr, ptr, ptr, i32, i32 }
%struct.nstime_t = type { i64, i32 }
%struct.anon = type { i8, [3 x i8] }

@ssl_options = internal global %struct.ssl_common_options zeroinitializer, align 8
@ssl_keylog_file = internal global ptr null, align 8
@ssl_master_key_map = internal global %struct.ssl_master_key_map_t zeroinitializer, align 8
@proto_tls = internal global i32 0, align 4
@.str.16 = private unnamed_addr constant [24 x i8] c"%s frame %d is_quic=%d\0A\00", align 1
@__func__.tls13_get_quic_secret = private unnamed_addr constant [22 x i8] c"tls13_get_quic_secret\00", align 1
@.str.17 = private unnamed_addr constant [26 x i8] c"%s missing Client Random\0A\00", align 1
@.str.18 = private unnamed_addr constant [29 x i8] c"%s:%u: failed assertion \22%s\22\00", align 1
@.str.19 = private unnamed_addr constant [29 x i8] c"epan/dissectors/packet-tls.c\00", align 1
@.str.20 = private unnamed_addr constant [16 x i8] c"!is_from_server\00", align 1
@.str.21 = private unnamed_addr constant [28 x i8] c"CLIENT_EARLY_TRAFFIC_SECRET\00", align 1
@.str.22 = private unnamed_addr constant [32 x i8] c"SERVER_HANDSHAKE_TRAFFIC_SECRET\00", align 1
@.str.23 = private unnamed_addr constant [32 x i8] c"CLIENT_HANDSHAKE_TRAFFIC_SECRET\00", align 1
@.str.24 = private unnamed_addr constant [24 x i8] c"SERVER_TRAFFIC_SECRET_0\00", align 1
@.str.25 = private unnamed_addr constant [24 x i8] c"CLIENT_TRAFFIC_SECRET_0\00", align 1
@.str.26 = private unnamed_addr constant [1 x i8] zeroinitializer, align 1
@.str.27 = private unnamed_addr constant [31 x i8] c"assertion \22not reached\22 failed\00", align 1
@.str.28 = private unnamed_addr constant [59 x i8] c"%s Cannot find QUIC %s of size %d..%d, found bad size %d!\0A\00", align 1
@.str.29 = private unnamed_addr constant [35 x i8] c"%s Retrieved QUIC traffic secret.\0A\00", align 1
@.str.30 = private unnamed_addr constant [14 x i8] c"Client Random\00", align 1

; Function Attrs: alwaysinline nounwind
define internal ptr @memcpy.inline(ptr noalias %0, ptr noalias %1, i64 %2) #4 {
  %4 = alloca ptr, align 8
  %5 = alloca ptr, align 8
  %6 = alloca i64, align 8
  store ptr %0, ptr %4, align 8
  store ptr %1, ptr %5, align 8
  store i64 %2, ptr %6, align 8
  %7 = load ptr, ptr %4, align 8
  %8 = load ptr, ptr %5, align 8
  %9 = load i64, ptr %6, align 8
  %10 = load ptr, ptr %4, align 8
  %11 = call i64 @llvm.objectsize.i64.p0(ptr %10, i1 false, i1 true, i1 true)
  %12 = call ptr @__memcpy_chk(ptr noundef %7, ptr noundef %8, i64 noundef %9, i64 noundef %11) #18
  ret ptr %12
}

; Function Attrs: null_pointer_is_valid sspstrong uwtable
define hidden i32 @tls13_get_quic_secret(ptr noundef %0, i1 noundef zeroext %1, i32 noundef %2, i32 noundef %3, i32 noundef %4, ptr noundef %5) #0 {
  %7 = alloca i32, align 4
  %8 = alloca ptr, align 8
  %9 = alloca i8, align 1
  %10 = alloca i32, align 4
  %11 = alloca i32, align 4
  %12 = alloca i32, align 4
  %13 = alloca ptr, align 8
  %14 = alloca ptr, align 8
  %15 = alloca ptr, align 8
  %16 = alloca ptr, align 8
  %17 = alloca i32, align 4
  %18 = alloca ptr, align 8
  %19 = alloca i8, align 1
  %20 = alloca ptr, align 8
  store ptr %0, ptr %8, align 8
  %21 = zext i1 %1 to i8
  store i8 %21, ptr %9, align 1
  store i32 %2, ptr %10, align 4
  store i32 %3, ptr %11, align 4
  store i32 %4, ptr %12, align 4
  store ptr %5, ptr %13, align 8
  call void @llvm.lifetime.start.p0(i64 8, ptr %14) #18
  call void @llvm.lifetime.start.p0(i64 8, ptr %15) #18
  call void @llvm.lifetime.start.p0(i64 8, ptr %16) #18
  %22 = load ptr, ptr %8, align 8
  %23 = call ptr @find_conversation_pinfo(ptr noundef %22, i32 noundef 0)
  store ptr %23, ptr %16, align 8
  %24 = load ptr, ptr %16, align 8
  %25 = icmp ne ptr %24, null
  br i1 %25, label %27, label %26

26:                                               ; preds = %6
  store i32 0, ptr %7, align 4
  store i32 1, ptr %17, align 4
  br label %139

27:                                               ; preds = %6
  call void @llvm.lifetime.start.p0(i64 8, ptr %18) #18
  %28 = load ptr, ptr %16, align 8
  %29 = load i32, ptr @proto_tls, align 4
  %30 = call ptr @conversation_get_proto_data(ptr noundef %28, i32 noundef %29)
  store ptr %30, ptr %18, align 8
  %31 = load ptr, ptr %18, align 8
  %32 = icmp eq ptr %31, null
  br i1 %32, label %33, label %34

33:                                               ; preds = %27
  store i32 0, ptr %7, align 4
  store i32 1, ptr %17, align 4
  br label %138

34:                                               ; preds = %27
  call void @llvm.lifetime.start.p0(i64 1, ptr %19) #18
  %35 = load ptr, ptr %18, align 8
  %36 = getelementptr inbounds nuw %struct._SslDecryptSession, ptr %35, i32 0, i32 15
  %37 = load i32, ptr %36, align 8
  %38 = and i32 %37, 8192
  %39 = icmp ne i32 %38, 0
  %40 = xor i1 %39, true
  %41 = xor i1 %40, true
  %42 = zext i1 %41 to i8
  store i8 %42, ptr %19, align 1
  %43 = load ptr, ptr %8, align 8
  %44 = getelementptr inbounds nuw %struct._packet_info, ptr %43, i32 0, i32 3
  %45 = load i32, ptr %44, align 4
  %46 = load i8, ptr %19, align 1, !range !6, !noundef !7
  %47 = trunc i8 %46 to i1
  %48 = zext i1 %47 to i32
  call void (ptr, ...) @ssl_debug_printf(ptr noundef @.str.16, ptr noundef @__func__.tls13_get_quic_secret, i32 noundef %45, i32 noundef %48)
  %49 = load i8, ptr %19, align 1, !range !6, !noundef !7
  %50 = trunc i8 %49 to i1
  br i1 %50, label %52, label %51

51:                                               ; preds = %34
  store i32 0, ptr %7, align 4
  store i32 1, ptr %17, align 4
  br label %137

52:                                               ; preds = %34
  %53 = load ptr, ptr %18, align 8
  %54 = getelementptr inbounds nuw %struct._SslDecryptSession, ptr %53, i32 0, i32 7
  %55 = getelementptr inbounds nuw %struct._StringInfo, ptr %54, i32 0, i32 1
  %56 = load i32, ptr %55, align 8
  %57 = icmp eq i32 %56, 0
  br i1 %57, label %58, label %59

58:                                               ; preds = %52
  call void (ptr, ...) @ssl_debug_printf(ptr noundef @.str.17, ptr noundef @__func__.tls13_get_quic_secret)
  store i32 0, ptr %7, align 4
  store i32 1, ptr %17, align 4
  br label %137

59:                                               ; preds = %52
  %60 = load ptr, ptr getelementptr inbounds nuw (%struct.ssl_common_options, ptr @ssl_options, i32 0, i32 1), align 8
  call void @ssl_load_keyfile(ptr noundef %60, ptr noundef @ssl_keylog_file, ptr noundef @ssl_master_key_map)
  %61 = load i32, ptr %10, align 4
  switch i32 %61, label %86 [
    i32 0, label %62
    i32 1, label %70
    i32 2, label %78
  ]

62:                                               ; preds = %59
  %63 = load i8, ptr %9, align 1, !range !6, !noundef !7
  %64 = trunc i8 %63 to i1
  br i1 %64, label %66, label %65

65:                                               ; preds = %62
  br label %68

66:                                               ; preds = %62
  call void (ptr, ...) @proto_report_dissector_bug(ptr noundef @.str.18, ptr noundef @.str.19, i32 noundef 4207, ptr noundef @.str.20) #19
  unreachable

67:                                               ; No predecessors!
  br label %68

68:                                               ; preds = %67, %65
  store ptr @.str.21, ptr %15, align 8
  %69 = load ptr, ptr getelementptr inbounds nuw (%struct.ssl_master_key_map_t, ptr @ssl_master_key_map, i32 0, i32 5), align 8
  store ptr %69, ptr %14, align 8
  br label %87

70:                                               ; preds = %59
  %71 = load i8, ptr %9, align 1, !range !6, !noundef !7
  %72 = trunc i8 %71 to i1
  br i1 %72, label %73, label %75

73:                                               ; preds = %70
  store ptr @.str.22, ptr %15, align 8
  %74 = load ptr, ptr getelementptr inbounds nuw (%struct.ssl_master_key_map_t, ptr @ssl_master_key_map, i32 0, i32 7), align 8
  store ptr %74, ptr %14, align 8
  br label %77

75:                                               ; preds = %70
  store ptr @.str.23, ptr %15, align 8
  %76 = load ptr, ptr getelementptr inbounds nuw (%struct.ssl_master_key_map_t, ptr @ssl_master_key_map, i32 0, i32 6), align 8
  store ptr %76, ptr %14, align 8
  br label %77

77:                                               ; preds = %75, %73
  br label %87

78:                                               ; preds = %59
  %79 = load i8, ptr %9, align 1, !range !6, !noundef !7
  %80 = trunc i8 %79 to i1
  br i1 %80, label %81, label %83

81:                                               ; preds = %78
  store ptr @.str.24, ptr %15, align 8
  %82 = load ptr, ptr getelementptr inbounds nuw (%struct.ssl_master_key_map_t, ptr @ssl_master_key_map, i32 0, i32 9), align 8
  store ptr %82, ptr %14, align 8
  br label %85

83:                                               ; preds = %78
  store ptr @.str.25, ptr %15, align 8
  %84 = load ptr, ptr getelementptr inbounds nuw (%struct.ssl_master_key_map_t, ptr @ssl_master_key_map, i32 0, i32 8), align 8
  store ptr %84, ptr %14, align 8
  br label %85

85:                                               ; preds = %83, %81
  br label %87

86:                                               ; preds = %59
  call void (ptr, i32, ptr, i64, ptr, ptr, ...) @ws_log_fatal_full(ptr noundef @.str.26, i32 noundef 7, ptr noundef @.str.19, i64 noundef 4230, ptr noundef @__func__.tls13_get_quic_secret, ptr noundef @.str.27) #19
  unreachable

87:                                               ; preds = %85, %77, %68
  call void @llvm.lifetime.start.p0(i64 8, ptr %20) #18
  %88 = load ptr, ptr %14, align 8
  %89 = load ptr, ptr %18, align 8
  %90 = getelementptr inbounds nuw %struct._SslDecryptSession, ptr %89, i32 0, i32 7
  %91 = call ptr @g_hash_table_lookup(ptr noundef %88, ptr noundef %90)
  store ptr %91, ptr %20, align 8
  %92 = load ptr, ptr %20, align 8
  %93 = icmp ne ptr %92, null
  br i1 %93, label %94, label %106

94:                                               ; preds = %87
  %95 = load ptr, ptr %20, align 8
  %96 = getelementptr inbounds nuw %struct._StringInfo, ptr %95, i32 0, i32 1
  %97 = load i32, ptr %96, align 8
  %98 = load i32, ptr %11, align 4
  %99 = icmp ult i32 %97, %98
  br i1 %99, label %106, label %100

100:                                              ; preds = %94
  %101 = load ptr, ptr %20, align 8
  %102 = getelementptr inbounds nuw %struct._StringInfo, ptr %101, i32 0, i32 1
  %103 = load i32, ptr %102, align 8
  %104 = load i32, ptr %12, align 4
  %105 = icmp ugt i32 %103, %104
  br i1 %105, label %106, label %119

106:                                              ; preds = %100, %94, %87
  %107 = load ptr, ptr %15, align 8
  %108 = load i32, ptr %11, align 4
  %109 = load i32, ptr %12, align 4
  %110 = load ptr, ptr %20, align 8
  %111 = icmp ne ptr %110, null
  br i1 %111, label %112, label %116

112:                                              ; preds = %106
  %113 = load ptr, ptr %20, align 8
  %114 = getelementptr inbounds nuw %struct._StringInfo, ptr %113, i32 0, i32 1
  %115 = load i32, ptr %114, align 8
  br label %117

116:                                              ; preds = %106
  br label %117

117:                                              ; preds = %116, %112
  %118 = phi i32 [ %115, %112 ], [ 0, %116 ]
  call void (ptr, ...) @ssl_debug_printf(ptr noundef @.str.28, ptr noundef @__func__.tls13_get_quic_secret, ptr noundef %107, i32 noundef %108, i32 noundef %109, i32 noundef %118)
  store i32 0, ptr %7, align 4
  store i32 1, ptr %17, align 4
  br label %136

119:                                              ; preds = %100
  call void (ptr, ...) @ssl_debug_printf(ptr noundef @.str.29, ptr noundef @__func__.tls13_get_quic_secret)
  %120 = load ptr, ptr %18, align 8
  %121 = getelementptr inbounds nuw %struct._SslDecryptSession, ptr %120, i32 0, i32 7
  call void @ssl_print_string(ptr noundef @.str.30, ptr noundef %121)
  %122 = load ptr, ptr %15, align 8
  %123 = load ptr, ptr %20, align 8
  call void @ssl_print_string(ptr noundef %122, ptr noundef %123)
  %124 = load ptr, ptr %13, align 8
  %125 = load ptr, ptr %20, align 8
  %126 = getelementptr inbounds nuw %struct._StringInfo, ptr %125, i32 0, i32 0
  %127 = load ptr, ptr %126, align 8
  %128 = load ptr, ptr %20, align 8
  %129 = getelementptr inbounds nuw %struct._StringInfo, ptr %128, i32 0, i32 1
  %130 = load i32, ptr %129, align 8
  %131 = zext i32 %130 to i64
  %132 = call ptr @memcpy.inline(ptr noundef %124, ptr noundef %127, i64 noundef %131) #18
  %133 = load ptr, ptr %20, align 8
  %134 = getelementptr inbounds nuw %struct._StringInfo, ptr %133, i32 0, i32 1
  %135 = load i32, ptr %134, align 8
  store i32 %135, ptr %7, align 4
  store i32 1, ptr %17, align 4
  br label %136

136:                                              ; preds = %119, %117
  call void @llvm.lifetime.end.p0(i64 8, ptr %20) #18
  br label %137

137:                                              ; preds = %136, %58, %51
  call void @llvm.lifetime.end.p0(i64 1, ptr %19) #18
  br label %138

138:                                              ; preds = %137, %33
  call void @llvm.lifetime.end.p0(i64 8, ptr %18) #18
  br label %139

139:                                              ; preds = %138, %26
  call void @llvm.lifetime.end.p0(i64 8, ptr %16) #18
  call void @llvm.lifetime.end.p0(i64 8, ptr %15) #18
  call void @llvm.lifetime.end.p0(i64 8, ptr %14) #18
  %140 = load i32, ptr %7, align 4
  ret i32 %140
}