; Function Attrs: null_pointer_is_valid sspstrong uwtable
define hidden i32 @tls13_get_quic_secret(ptr noundef %0, i1 noundef zeroext %1, i32 noundef %2, i32 noundef %3, i32 noundef %4, ptr noundef %5) local_unnamed_addr #0 {
  %7 = tail call ptr @find_conversation_pinfo(ptr noundef %0, i32 noundef 0)
  %.not = icmp eq ptr %7, null
  br i1 %.not, label %44, label %8

8:                                                ; preds = %6
  %9 = load i32, ptr @proto_tls, align 4
  %10 = tail call ptr @conversation_get_proto_data(ptr noundef nonnull %7, i32 noundef %9)
  %11 = icmp eq ptr %10, null
  br i1 %11, label %44, label %12

12:                                               ; preds = %8
  %13 = getelementptr inbounds nuw i8, ptr %10, i64 560
  %14 = load i32, ptr %13, align 8
  %15 = and i32 %14, 8192
  %.not39 = icmp eq i32 %15, 0
  %16 = getelementptr inbounds nuw i8, ptr %0, i64 20
  %17 = load i32, ptr %16, align 4
  %.lobit = lshr exact i32 %15, 13
  tail call void (ptr, ...) @ssl_debug_printf(ptr noundef nonnull @.str.16, ptr noundef nonnull @__func__.tls13_get_quic_secret, i32 noundef %17, i32 noundef %.lobit)
  br i1 %.not39, label %44, label %18

18:                                               ; preds = %12
  %19 = getelementptr inbounds nuw i8, ptr %10, i64 416
  %20 = getelementptr inbounds nuw i8, ptr %10, i64 424
  %21 = load i32, ptr %20, align 8
  %22 = icmp eq i32 %21, 0
  br i1 %22, label %23, label %24

23:                                               ; preds = %18
  tail call void (ptr, ...) @ssl_debug_printf(ptr noundef nonnull @.str.17, ptr noundef nonnull @__func__.tls13_get_quic_secret)
  br label %44

24:                                               ; preds = %18
  %25 = load ptr, ptr getelementptr inbounds nuw (i8, ptr @ssl_options, i64 8), align 8
  tail call void @ssl_load_keyfile(ptr noundef %25, ptr noundef nonnull @ssl_keylog_file, ptr noundef nonnull @ssl_master_key_map)
  switch i32 %2, label %30 [
    i32 0, label %26
    i32 1, label %28
    i32 2, label %29
  ]

26:                                               ; preds = %24
  br i1 %1, label %27, label %31

27:                                               ; preds = %26
  tail call void (ptr, ...) @proto_report_dissector_bug(ptr noundef nonnull @.str.18, ptr noundef nonnull @.str.19, i32 noundef 4207, ptr noundef nonnull @.str.20) #14
  unreachable

28:                                               ; preds = %24
  %.str.22..str.23 = select i1 %1, ptr @.str.22, ptr @.str.23
  %. = select i1 %1, ptr getelementptr inbounds nuw (i8, ptr @ssl_master_key_map, i64 56), ptr getelementptr inbounds nuw (i8, ptr @ssl_master_key_map, i64 48)
  br label %31

29:                                               ; preds = %24
  %.str.24..str.25 = select i1 %1, ptr @.str.24, ptr @.str.25
  %.41 = select i1 %1, ptr getelementptr inbounds nuw (i8, ptr @ssl_master_key_map, i64 72), ptr getelementptr inbounds nuw (i8, ptr @ssl_master_key_map, i64 64)
  br label %31

30:                                               ; preds = %24
  tail call void (ptr, i32, ptr, i64, ptr, ptr, ...) @ws_log_fatal_full(ptr noundef nonnull @.str.26, i32 noundef 7, ptr noundef nonnull @.str.19, i64 noundef 4230, ptr noundef nonnull @__func__.tls13_get_quic_secret, ptr noundef nonnull @.str.27) #14
  unreachable

31:                                               ; preds = %29, %28, %26
  %.033 = phi ptr [ @.str.21, %26 ], [ %.str.22..str.23, %28 ], [ %.str.24..str.25, %29 ]
  %.032.in = phi ptr [ getelementptr inbounds nuw (i8, ptr @ssl_master_key_map, i64 40), %26 ], [ %., %28 ], [ %.41, %29 ]
  %.032 = load ptr, ptr %.032.in, align 8
  %32 = tail call ptr @g_hash_table_lookup(ptr noundef %.032, ptr noundef nonnull %19)
  %.not40 = icmp eq ptr %32, null
  br i1 %.not40, label %.critedge, label %33

33:                                               ; preds = %31
  %34 = getelementptr inbounds nuw i8, ptr %32, i64 8
  %35 = load i32, ptr %34, align 8
  %36 = icmp ult i32 %35, %3
  %37 = icmp ugt i32 %35, %4
  %or.cond = or i1 %36, %37
  br i1 %or.cond, label %.critedge, label %39

.critedge:                                        ; preds = %33, %31
  %38 = phi i32 [ 0, %31 ], [ %35, %33 ]
  tail call void (ptr, ...) @ssl_debug_printf(ptr noundef nonnull @.str.28, ptr noundef nonnull @__func__.tls13_get_quic_secret, ptr noundef nonnull %.033, i32 noundef %3, i32 noundef %4, i32 noundef %38)
  br label %44

39:                                               ; preds = %33
  tail call void (ptr, ...) @ssl_debug_printf(ptr noundef nonnull @.str.29, ptr noundef nonnull @__func__.tls13_get_quic_secret)
  tail call void @ssl_print_string(ptr noundef nonnull @.str.30, ptr noundef nonnull %19)
  tail call void @ssl_print_string(ptr noundef nonnull %.033, ptr noundef nonnull %32)
  %40 = load ptr, ptr %32, align 8
  %41 = load i32, ptr %34, align 8
  %42 = zext i32 %41 to i64
  tail call void @llvm.memcpy.p0.p0.i64(ptr noundef align 1 %5, ptr noundef align 1 %40, i64 noundef range(i64 0, 4294967296) %42, i1 noundef false) #15
  %43 = load i32, ptr %34, align 8
  br label %44

44:                                               ; preds = %8, %.critedge, %39, %12, %23, %6
  %.0 = phi i32 [ 0, %6 ], [ 0, %8 ], [ 0, %23 ], [ 0, %12 ], [ 0, %.critedge ], [ %43, %39 ]
  ret i32 %.0
}